; Function Attrs: nounwind uwtable
define internal void @txfc_bump_cwm_bidi(ptr noundef %0, ptr noundef readonly captures(none) %1) #0 {
  %3 = getelementptr i8, ptr %0, i64 256
  %.val = load i64, ptr %3, align 8
  %4 = and i64 %.val, 3
  %or.cond = icmp eq i64 %4, 0
  br i1 %or.cond, label %5, label %9

5:                                                ; preds = %2
  %6 = getelementptr inbounds nuw i8, ptr %0, i64 128
  %7 = load i64, ptr %1, align 8, !tbaa !71
  %8 = tail call i32 @ossl_quic_txfc_bump_cwm(ptr noundef nonnull %6, i64 noundef %7) #15
  br label %9

9:                                                ; preds = %2, %5
  ret void
}